; Function Attrs: nounwind uwtable
define ptr @l_Array_forIn_x27Unsafe_loop___at_Lean_Server_Test_Runner_main___spec__18___boxed(ptr noundef %0, ptr noundef %1, ptr noundef %2, ptr noundef %3, ptr noundef %4, ptr noundef %5, ptr noundef %6, ptr noundef %7, ptr noundef %8, ptr noundef %9, ptr noundef %10) local_unnamed_addr #1 {
  %12 = getelementptr i8, ptr %2, i64 8
  %.val36 = load i64, ptr %12, align 8, !tbaa !12
  %13 = ptrtoint ptr %2 to i64
  %14 = and i64 %13, 1
  %.not = icmp eq i64 %14, 0
  br i1 %.not, label %15, label %lean_dec.exit24

15:                                               ; preds = %11
  %16 = load i32, ptr %2, align 4, !tbaa !8
  %17 = icmp sgt i32 %16, 1
  br i1 %17, label %18, label %20, !prof !11

18:                                               ; preds = %15
  %19 = add nsw i32 %16, -1
  store i32 %19, ptr %2, align 4, !tbaa !8
  br label %lean_dec.exit24

20:                                               ; preds = %15
  %.not.i = icmp eq i32 %16, 0
  br i1 %.not.i, label %lean_dec.exit24, label %21

21:                                               ; preds = %20
  tail call void @lean_dec_ref_cold(ptr noundef nonnull %2) #6
  br label %lean_dec.exit24

lean_dec.exit24:                                  ; preds = %21, %20, %18, %11
  %22 = getelementptr i8, ptr %6, i64 8
  %.val35 = load i64, ptr %22, align 8, !tbaa !12
  %23 = ptrtoint ptr %6 to i64
  %24 = and i64 %23, 1
  %.not37 = icmp eq i64 %24, 0
  br i1 %.not37, label %25, label %lean_dec.exit23

25:                                               ; preds = %lean_dec.exit24
  %26 = load i32, ptr %6, align 4, !tbaa !8
  %27 = icmp sgt i32 %26, 1
  br i1 %27, label %28, label %30, !prof !11

28:                                               ; preds = %25
  %29 = add nsw i32 %26, -1
  store i32 %29, ptr %6, align 4, !tbaa !8
  br label %lean_dec.exit23

30:                                               ; preds = %25
  %.not.i25 = icmp eq i32 %26, 0
  br i1 %.not.i25, label %lean_dec.exit23, label %31

31:                                               ; preds = %30
  tail call void @lean_dec_ref_cold(ptr noundef nonnull %6) #6
  br label %lean_dec.exit23

lean_dec.exit23:                                  ; preds = %31, %30, %28, %lean_dec.exit24
  %32 = getelementptr i8, ptr %7, i64 8
  %.val = load i64, ptr %32, align 8, !tbaa !12
  %33 = ptrtoint ptr %7 to i64
  %34 = and i64 %33, 1
  %.not38 = icmp eq i64 %34, 0
  br i1 %.not38, label %35, label %lean_dec.exit22

35:                                               ; preds = %lean_dec.exit23
  %36 = load i32, ptr %7, align 4, !tbaa !8
  %37 = icmp sgt i32 %36, 1
  br i1 %37, label %38, label %40, !prof !11

38:                                               ; preds = %35
  %39 = add nsw i32 %36, -1
  store i32 %39, ptr %7, align 4, !tbaa !8
  br label %lean_dec.exit22

40:                                               ; preds = %35
  %.not.i27 = icmp eq i32 %36, 0
  br i1 %.not.i27, label %lean_dec.exit22, label %41

41:                                               ; preds = %40
  tail call void @lean_dec_ref_cold(ptr noundef nonnull %7) #6
  br label %lean_dec.exit22

lean_dec.exit22:                                  ; preds = %41, %40, %38, %lean_dec.exit23
  %42 = tail call ptr @l_Array_forIn_x27Unsafe_loop___at_Lean_Server_Test_Runner_main___spec__18(ptr noundef %0, ptr noundef %1, i64 noundef %.val36, ptr poison, ptr poison, ptr noundef %5, i64 noundef %.val35, i64 noundef %.val, ptr noundef %8, ptr noundef %9, ptr noundef %10)
  %43 = ptrtoint ptr %5 to i64
  %44 = and i64 %43, 1
  %.not39 = icmp eq i64 %44, 0
  br i1 %.not39, label %45, label %lean_dec.exit21

45:                                               ; preds = %lean_dec.exit22
  %46 = load i32, ptr %5, align 4, !tbaa !8
  %47 = icmp sgt i32 %46, 1
  br i1 %47, label %48, label %50, !prof !11

48:                                               ; preds = %45
  %49 = add nsw i32 %46, -1
  store i32 %49, ptr %5, align 4, !tbaa !8
  br label %lean_dec.exit21

50:                                               ; preds = %45
  %.not.i29 = icmp eq i32 %46, 0
  br i1 %.not.i29, label %lean_dec.exit21, label %51

51:                                               ; preds = %50
  tail call void @lean_dec_ref_cold(ptr noundef nonnull %5) #6
  br label %lean_dec.exit21

lean_dec.exit21:                                  ; preds = %51, %50, %48, %lean_dec.exit22
  %52 = ptrtoint ptr %4 to i64
  %53 = and i64 %52, 1
  %.not40 = icmp eq i64 %53, 0
  br i1 %.not40, label %54, label %lean_dec.exit20

54:                                               ; preds = %lean_dec.exit21
  %55 = load i32, ptr %4, align 4, !tbaa !8
  %56 = icmp sgt i32 %55, 1
  br i1 %56, label %57, label %59, !prof !11

57:                                               ; preds = %54
  %58 = add nsw i32 %55, -1
  store i32 %58, ptr %4, align 4, !tbaa !8
  br label %lean_dec.exit20

59:                                               ; preds = %54
  %.not.i31 = icmp eq i32 %55, 0
  br i1 %.not.i31, label %lean_dec.exit20, label %60

60:                                               ; preds = %59
  tail call void @lean_dec_ref_cold(ptr noundef nonnull %4) #6
  br label %lean_dec.exit20

lean_dec.exit20:                                  ; preds = %60, %59, %57, %lean_dec.exit21
  %61 = ptrtoint ptr %3 to i64
  %62 = and i64 %61, 1
  %.not41 = icmp eq i64 %62, 0
  br i1 %.not41, label %63, label %lean_dec.exit

63:                                               ; preds = %lean_dec.exit20
  %64 = load i32, ptr %3, align 4, !tbaa !8
  %65 = icmp sgt i32 %64, 1
  br i1 %65, label %66, label %68, !prof !11

66:                                               ; preds = %63
  %67 = add nsw i32 %64, -1
  store i32 %67, ptr %3, align 4, !tbaa !8
  br label %lean_dec.exit

68:                                               ; preds = %63
  %.not.i33 = icmp eq i32 %64, 0
  br i1 %.not.i33, label %lean_dec.exit, label %69

69:                                               ; preds = %68
  tail call void @lean_dec_ref_cold(ptr noundef nonnull %3) #6
  br label %lean_dec.exit

lean_dec.exit:                                    ; preds = %69, %68, %66, %lean_dec.exit20
  ret ptr %42
}